target datalayout = "e-m:e-p270:32:32-p271:32:32-p272:64:64-i64:64-i128:128-f80:128-n8:16:32:64-S128"
target triple = "x86_64-pc-linux-gnu"

%struct._object = type { %union.anon, ptr }
%union.anon = type { i64 }
%struct._longobject = type { %struct._object, %struct._PyLongValue }
%struct._PyLongValue = type { i64, [1 x i32] }
%struct.SemLockObject = type { %struct._object, ptr, i64, i32, i32, i32, ptr }
%struct.timespec = type { i64, i64 }
%struct.timeval = type { i64, i64 }

@_Py_NoneStruct = external global %struct._object, align 8
@_Py_TrueStruct = external global %struct._longobject, align 8
@PyExc_OSError = external global ptr, align 8
@_Py_FalseStruct = external global %struct._longobject, align 8

; Function Attrs: nounwind uwtable
define internal ptr @_multiprocessing_SemLock_acquire_impl(ptr noundef %0, i32 noundef %1, ptr noundef %2) #0 {
  %4 = alloca ptr, align 8
  %5 = alloca ptr, align 8
  %6 = alloca i32, align 4
  %7 = alloca ptr, align 8
  %8 = alloca i32, align 4
  %9 = alloca i32, align 4
  %10 = alloca %struct.timespec, align 8
  %11 = alloca i32, align 4
  %12 = alloca i32, align 4
  %13 = alloca double, align 8
  %14 = alloca %struct.timeval, align 8
  %15 = alloca i64, align 8
  %16 = alloca i64, align 8
  %17 = alloca ptr, align 8
  store ptr %0, ptr %5, align 8, !tbaa !10
  store i32 %1, ptr %6, align 4, !tbaa !29
  store ptr %2, ptr %7, align 8, !tbaa !8
  call void @llvm.lifetime.start.p0(i64 4, ptr %8) #10
  call void @llvm.lifetime.start.p0(i64 4, ptr %9) #10
  store i32 0, ptr %9, align 4, !tbaa !29
  call void @llvm.lifetime.start.p0(i64 16, ptr %10) #10
  call void @llvm.memset.p0.i64(ptr align 8 %10, i8 0, i64 16, i1 false)
  %18 = load ptr, ptr %5, align 8, !tbaa !10
  %19 = getelementptr inbounds nuw %struct.SemLockObject, ptr %18, i32 0, i32 5
  %20 = load i32, ptr %19, align 8, !tbaa !32
  %21 = icmp eq i32 %20, 0
  br i1 %21, label %22, label %38

22:                                               ; preds = %3
  %23 = load ptr, ptr %5, align 8, !tbaa !10
  %24 = getelementptr inbounds nuw %struct.SemLockObject, ptr %23, i32 0, i32 3
  %25 = load i32, ptr %24, align 8, !tbaa !33
  %26 = icmp sgt i32 %25, 0
  br i1 %26, label %27, label %38

27:                                               ; preds = %22
  %28 = call i64 @PyThread_get_thread_ident()
  %29 = load ptr, ptr %5, align 8, !tbaa !10
  %30 = getelementptr inbounds nuw %struct.SemLockObject, ptr %29, i32 0, i32 2
  %31 = load i64, ptr %30, align 8, !tbaa !34
  %32 = icmp eq i64 %28, %31
  br i1 %32, label %33, label %38

33:                                               ; preds = %27
  %34 = load ptr, ptr %5, align 8, !tbaa !10
  %35 = getelementptr inbounds nuw %struct.SemLockObject, ptr %34, i32 0, i32 3
  %36 = load i32, ptr %35, align 8, !tbaa !33
  %37 = add i32 %36, 1
  store i32 %37, ptr %35, align 8, !tbaa !33
  store ptr @_Py_TrueStruct, ptr %4, align 8
  store i32 1, ptr %11, align 4
  br label %194

38:                                               ; preds = %27, %22, %3
  call void @llvm.lifetime.start.p0(i64 4, ptr %12) #10
  %39 = load ptr, ptr %7, align 8, !tbaa !8
  %40 = icmp ne ptr %39, @_Py_NoneStruct
  %41 = zext i1 %40 to i32
  store i32 %41, ptr %12, align 4, !tbaa !29
  %42 = load i32, ptr %12, align 4, !tbaa !29
  %43 = icmp ne i32 %42, 0
  br i1 %43, label %44, label %93

44:                                               ; preds = %38
  call void @llvm.lifetime.start.p0(i64 8, ptr %13) #10
  %45 = load ptr, ptr %7, align 8, !tbaa !8
  %46 = call double @PyFloat_AsDouble(ptr noundef %45)
  store double %46, ptr %13, align 8, !tbaa !35
  %47 = call ptr @PyErr_Occurred()
  %48 = icmp ne ptr %47, null
  br i1 %48, label %49, label %50

49:                                               ; preds = %44
  store ptr null, ptr %4, align 8
  store i32 1, ptr %11, align 4
  br label %90

50:                                               ; preds = %44
  %51 = load double, ptr %13, align 8, !tbaa !35
  %52 = fcmp olt double %51, 0.000000e+00
  br i1 %52, label %53, label %54

53:                                               ; preds = %50
  store double 0.000000e+00, ptr %13, align 8, !tbaa !35
  br label %54

54:                                               ; preds = %53, %50
  call void @llvm.lifetime.start.p0(i64 16, ptr %14) #10
  %55 = call i32 @gettimeofday(ptr noundef %14, ptr noundef null) #10
  %56 = icmp slt i32 %55, 0
  br i1 %56, label %57, label %60

57:                                               ; preds = %54
  %58 = load ptr, ptr @PyExc_OSError, align 8, !tbaa !8
  %59 = call ptr @PyErr_SetFromErrno(ptr noundef %58)
  store ptr null, ptr %4, align 8
  store i32 1, ptr %11, align 4
  br label %89

60:                                               ; preds = %54
  call void @llvm.lifetime.start.p0(i64 8, ptr %15) #10
  %61 = load double, ptr %13, align 8, !tbaa !35
  %62 = fptosi double %61 to i64
  store i64 %62, ptr %15, align 8, !tbaa !26
  call void @llvm.lifetime.start.p0(i64 8, ptr %16) #10
  %63 = load double, ptr %13, align 8, !tbaa !35
  %64 = load i64, ptr %15, align 8, !tbaa !26
  %65 = sitofp i64 %64 to double
  %66 = fsub double %63, %65
  %67 = call double @llvm.fmuladd.f64(double 1.000000e+09, double %66, double 5.000000e-01)
  %68 = fptosi double %67 to i64
  store i64 %68, ptr %16, align 8, !tbaa !26
  %69 = getelementptr inbounds nuw %struct.timeval, ptr %14, i32 0, i32 0
  %70 = load i64, ptr %69, align 8, !tbaa !37
  %71 = load i64, ptr %15, align 8, !tbaa !26
  %72 = add i64 %70, %71
  %73 = getelementptr inbounds nuw %struct.timespec, ptr %10, i32 0, i32 0
  store i64 %72, ptr %73, align 8, !tbaa !39
  %74 = getelementptr inbounds nuw %struct.timeval, ptr %14, i32 0, i32 1
  %75 = load i64, ptr %74, align 8, !tbaa !41
  %76 = mul i64 %75, 1000
  %77 = load i64, ptr %16, align 8, !tbaa !26
  %78 = add i64 %76, %77
  %79 = getelementptr inbounds nuw %struct.timespec, ptr %10, i32 0, i32 1
  store i64 %78, ptr %79, align 8, !tbaa !42
  %80 = getelementptr inbounds nuw %struct.timespec, ptr %10, i32 0, i32 1
  %81 = load i64, ptr %80, align 8, !tbaa !42
  %82 = sdiv i64 %81, 1000000000
  %83 = getelementptr inbounds nuw %struct.timespec, ptr %10, i32 0, i32 0
  %84 = load i64, ptr %83, align 8, !tbaa !39
  %85 = add i64 %84, %82
  store i64 %85, ptr %83, align 8, !tbaa !39
  %86 = getelementptr inbounds nuw %struct.timespec, ptr %10, i32 0, i32 1
  %87 = load i64, ptr %86, align 8, !tbaa !42
  %88 = srem i64 %87, 1000000000
  store i64 %88, ptr %86, align 8, !tbaa !42
  call void @llvm.lifetime.end.p0(i64 8, ptr %16) #10
  call void @llvm.lifetime.end.p0(i64 8, ptr %15) #10
  store i32 0, ptr %11, align 4
  br label %89

89:                                               ; preds = %60, %57
  call void @llvm.lifetime.end.p0(i64 16, ptr %14) #10
  br label %90

90:                                               ; preds = %89, %49
  call void @llvm.lifetime.end.p0(i64 8, ptr %13) #10
  %91 = load i32, ptr %11, align 4
  switch i32 %91, label %193 [
    i32 0, label %92
  ]

92:                                               ; preds = %90
  br label %93

93:                                               ; preds = %92, %38
  br label %94

94:                                               ; preds = %112, %93
  %95 = load ptr, ptr %5, align 8, !tbaa !10
  %96 = getelementptr inbounds nuw %struct.SemLockObject, ptr %95, i32 0, i32 1
  %97 = load ptr, ptr %96, align 8, !tbaa !13
  %98 = call i32 @sem_trywait(ptr noundef %97) #10
  store i32 %98, ptr %8, align 4, !tbaa !29
  %99 = call ptr @__errno_location() #12
  %100 = load i32, ptr %99, align 4, !tbaa !29
  store i32 %100, ptr %9, align 4, !tbaa !29
  br label %101

101:                                              ; preds = %94
  %102 = load i32, ptr %8, align 4, !tbaa !29
  %103 = icmp slt i32 %102, 0
  br i1 %103, label %104, label %112

104:                                              ; preds = %101
  %105 = call ptr @__errno_location() #12
  %106 = load i32, ptr %105, align 4, !tbaa !29
  %107 = icmp eq i32 %106, 4
  br i1 %107, label %108, label %112

108:                                              ; preds = %104
  %109 = call i32 @PyErr_CheckSignals()
  %110 = icmp ne i32 %109, 0
  %111 = xor i1 %110, true
  br label %112

112:                                              ; preds = %108, %104, %101
  %113 = phi i1 [ false, %104 ], [ false, %101 ], [ %111, %108 ]
  br i1 %113, label %94, label %114, !llvm.loop !43

114:                                              ; preds = %112
  %115 = load i32, ptr %9, align 4, !tbaa !29
  %116 = call ptr @__errno_location() #12
  store i32 %115, ptr %116, align 4, !tbaa !29
  %117 = load i32, ptr %8, align 4, !tbaa !29
  %118 = icmp slt i32 %117, 0
  br i1 %118, label %119, label %163

119:                                              ; preds = %114
  %120 = call ptr @__errno_location() #12
  %121 = load i32, ptr %120, align 4, !tbaa !29
  %122 = icmp eq i32 %121, 11
  br i1 %122, label %123, label %163

123:                                              ; preds = %119
  %124 = load i32, ptr %6, align 4, !tbaa !29
  %125 = icmp ne i32 %124, 0
  br i1 %125, label %126, label %163

126:                                              ; preds = %123
  br label %127

127:                                              ; preds = %160, %126
  call void @llvm.lifetime.start.p0(i64 8, ptr %17) #10
  %128 = call ptr @PyEval_SaveThread()
  store ptr %128, ptr %17, align 8, !tbaa !45
  %129 = load i32, ptr %12, align 4, !tbaa !29
  %130 = icmp ne i32 %129, 0
  br i1 %130, label %136, label %131

131:                                              ; preds = %127
  %132 = load ptr, ptr %5, align 8, !tbaa !10
  %133 = getelementptr inbounds nuw %struct.SemLockObject, ptr %132, i32 0, i32 1
  %134 = load ptr, ptr %133, align 8, !tbaa !13
  %135 = call i32 @sem_wait(ptr noundef %134)
  store i32 %135, ptr %8, align 4, !tbaa !29
  br label %141

136:                                              ; preds = %127
  %137 = load ptr, ptr %5, align 8, !tbaa !10
  %138 = getelementptr inbounds nuw %struct.SemLockObject, ptr %137, i32 0, i32 1
  %139 = load ptr, ptr %138, align 8, !tbaa !13
  %140 = call i32 @sem_timedwait(ptr noundef %139, ptr noundef %10)
  store i32 %140, ptr %8, align 4, !tbaa !29
  br label %141

141:                                              ; preds = %136, %131
  %142 = load ptr, ptr %17, align 8, !tbaa !45
  call void @PyEval_RestoreThread(ptr noundef %142)
  call void @llvm.lifetime.end.p0(i64 8, ptr %17) #10
  %143 = call ptr @__errno_location() #12
  %144 = load i32, ptr %143, align 4, !tbaa !29
  store i32 %144, ptr %9, align 4, !tbaa !29
  %145 = load i32, ptr %8, align 4, !tbaa !29
  %146 = icmp eq i32 %145, -1003
  br i1 %146, label %147, label %148

147:                                              ; preds = %141
  br label %162

148:                                              ; preds = %141
  br label %149

149:                                              ; preds = %148
  %150 = load i32, ptr %8, align 4, !tbaa !29
  %151 = icmp slt i32 %150, 0
  br i1 %151, label %152, label %160

152:                                              ; preds = %149
  %153 = call ptr @__errno_location() #12
  %154 = load i32, ptr %153, align 4, !tbaa !29
  %155 = icmp eq i32 %154, 4
  br i1 %155, label %156, label %160

156:                                              ; preds = %152
  %157 = call i32 @PyErr_CheckSignals()
  %158 = icmp ne i32 %157, 0
  %159 = xor i1 %158, true
  br label %160

160:                                              ; preds = %156, %152, %149
  %161 = phi i1 [ false, %152 ], [ false, %149 ], [ %159, %156 ]
  br i1 %161, label %127, label %162, !llvm.loop !47

162:                                              ; preds = %160, %147
  br label %163

163:                                              ; preds = %162, %123, %119, %114
  %164 = load i32, ptr %8, align 4, !tbaa !29
  %165 = icmp slt i32 %164, 0
  br i1 %165, label %166, label %185

166:                                              ; preds = %163
  %167 = load i32, ptr %9, align 4, !tbaa !29
  %168 = call ptr @__errno_location() #12
  store i32 %167, ptr %168, align 4, !tbaa !29
  %169 = call ptr @__errno_location() #12
  %170 = load i32, ptr %169, align 4, !tbaa !29
  %171 = icmp eq i32 %170, 11
  br i1 %171, label %176, label %172

172:                                              ; preds = %166
  %173 = call ptr @__errno_location() #12
  %174 = load i32, ptr %173, align 4, !tbaa !29
  %175 = icmp eq i32 %174, 110
  br i1 %175, label %176, label %177

176:                                              ; preds = %172, %166
  store ptr @_Py_FalseStruct, ptr %4, align 8
  store i32 1, ptr %11, align 4
  br label %193

177:                                              ; preds = %172
  %178 = call ptr @__errno_location() #12
  %179 = load i32, ptr %178, align 4, !tbaa !29
  %180 = icmp eq i32 %179, 4
  br i1 %180, label %181, label %182

181:                                              ; preds = %177
  store ptr null, ptr %4, align 8
  store i32 1, ptr %11, align 4
  br label %193

182:                                              ; preds = %177
  %183 = load ptr, ptr @PyExc_OSError, align 8, !tbaa !8
  %184 = call ptr @PyErr_SetFromErrno(ptr noundef %183)
  store ptr %184, ptr %4, align 8
  store i32 1, ptr %11, align 4
  br label %193

185:                                              ; preds = %163
  %186 = load ptr, ptr %5, align 8, !tbaa !10
  %187 = getelementptr inbounds nuw %struct.SemLockObject, ptr %186, i32 0, i32 3
  %188 = load i32, ptr %187, align 8, !tbaa !33
  %189 = add i32 %188, 1
  store i32 %189, ptr %187, align 8, !tbaa !33
  %190 = call i64 @PyThread_get_thread_ident()
  %191 = load ptr, ptr %5, align 8, !tbaa !10
  %192 = getelementptr inbounds nuw %struct.SemLockObject, ptr %191, i32 0, i32 2
  store i64 %190, ptr %192, align 8, !tbaa !34
  store ptr @_Py_TrueStruct, ptr %4, align 8
  store i32 1, ptr %11, align 4
  br label %193

193:                                              ; preds = %185, %182, %181, %176, %90
  call void @llvm.lifetime.end.p0(i64 4, ptr %12) #10
  br label %194

194:                                              ; preds = %193, %33
  call void @llvm.lifetime.end.p0(i64 16, ptr %10) #10
  call void @llvm.lifetime.end.p0(i64 4, ptr %9) #10
  call void @llvm.lifetime.end.p0(i64 4, ptr %8) #10
  %195 = load ptr, ptr %4, align 8
  ret ptr %195
}