; Function Attrs: nounwind uwtable
define internal fastcc ptr @_multiprocessing_SemLock_acquire_impl(ptr noundef captures(none) %0, i32 noundef range(i32 0, -2147483648) %1, ptr noundef %2) unnamed_addr #0 {
  %4 = alloca %struct.timespec, align 8
  %5 = alloca %struct.timeval, align 8
  call void @llvm.lifetime.start.p0(i64 16, ptr nonnull %4) #11
  call void @llvm.memset.p0.i64(ptr noundef nonnull align 8 dereferenceable(16) %4, i8 0, i64 16, i1 false)
  %6 = getelementptr inbounds nuw i8, ptr %0, i64 40
  %7 = load i32, ptr %6, align 8, !tbaa !29
  %8 = icmp eq i32 %7, 0
  br i1 %8, label %9, label %21

9:                                                ; preds = %3
  %10 = getelementptr inbounds nuw i8, ptr %0, i64 32
  %11 = load i32, ptr %10, align 8, !tbaa !30
  %12 = icmp sgt i32 %11, 0
  br i1 %12, label %13, label %21

13:                                               ; preds = %9
  %14 = tail call i64 @PyThread_get_thread_ident() #11
  %15 = getelementptr inbounds nuw i8, ptr %0, i64 24
  %16 = load i64, ptr %15, align 8, !tbaa !31
  %17 = icmp eq i64 %14, %16
  br i1 %17, label %18, label %21

18:                                               ; preds = %13
  %19 = load i32, ptr %10, align 8, !tbaa !30
  %20 = add i32 %19, 1
  store i32 %20, ptr %10, align 8, !tbaa !30
  br label %.critedge49

21:                                               ; preds = %13, %9, %3
  %.not = icmp eq ptr %2, @_Py_NoneStruct
  br i1 %.not, label %47, label %22

22:                                               ; preds = %21
  %23 = tail call double @PyFloat_AsDouble(ptr noundef %2) #11
  %24 = tail call ptr @PyErr_Occurred() #11
  %.not45 = icmp eq ptr %24, null
  br i1 %.not45, label %25, label %.critedge49

25:                                               ; preds = %22
  call void @llvm.lifetime.start.p0(i64 16, ptr nonnull %5) #11
  %26 = call i32 @gettimeofday(ptr noundef nonnull %5, ptr noundef null) #11
  %27 = icmp sgt i32 %26, -1
  br i1 %27, label %.thread, label %44

.thread:                                          ; preds = %25
  %28 = fcmp olt double %23, 0.000000e+00
  %.037 = select i1 %28, double 0.000000e+00, double %23
  %29 = fptosi double %.037 to i64
  %30 = sitofp i64 %29 to double
  %31 = fsub double %.037, %30
  %32 = tail call double @llvm.fmuladd.f64(double %31, double 1.000000e+09, double 5.000000e-01)
  %33 = fptosi double %32 to i64
  %34 = load i64, ptr %5, align 8, !tbaa !36
  %35 = add i64 %34, %29
  %36 = getelementptr inbounds nuw i8, ptr %5, i64 8
  %37 = load i64, ptr %36, align 8, !tbaa !38
  %38 = mul i64 %37, 1000
  %39 = add i64 %38, %33
  %40 = getelementptr inbounds nuw i8, ptr %4, i64 8
  %41 = sdiv i64 %39, 1000000000
  %42 = add i64 %41, %35
  store i64 %42, ptr %4, align 8, !tbaa !39
  %43 = srem i64 %39, 1000000000
  store i64 %43, ptr %40, align 8, !tbaa !41
  call void @llvm.lifetime.end.p0(i64 16, ptr nonnull %5) #11
  br label %47

44:                                               ; preds = %25
  %45 = load ptr, ptr @PyExc_OSError, align 8, !tbaa !25
  %46 = tail call ptr @PyErr_SetFromErrno(ptr noundef %45) #11
  call void @llvm.lifetime.end.p0(i64 16, ptr nonnull %5) #11
  br label %.critedge49

47:                                               ; preds = %.thread, %21
  %48 = getelementptr inbounds nuw i8, ptr %0, i64 16
  br label %49

49:                                               ; preds = %56, %47
  %50 = load ptr, ptr %48, align 8, !tbaa !9
  %51 = tail call i32 @sem_trywait(ptr noundef %50) #11
  %52 = tail call ptr @__errno_location() #13
  %53 = load i32, ptr %52, align 4, !tbaa !33
  %54 = icmp slt i32 %51, 0
  %55 = icmp eq i32 %53, 4
  %or.cond50 = select i1 %54, i1 %55, i1 false
  br i1 %or.cond50, label %56, label %.critedge

56:                                               ; preds = %49
  %57 = tail call i32 @PyErr_CheckSignals() #11
  %.not46 = icmp eq i32 %57, 0
  br i1 %.not46, label %49, label %.thread52, !llvm.loop !42

.thread52:                                        ; preds = %56
  store i32 4, ptr %52, align 4, !tbaa !33
  br label %.critedge3.thread.thread

.critedge:                                        ; preds = %49
  br i1 %54, label %58, label %.critedge3.thread57

58:                                               ; preds = %.critedge
  %59 = icmp eq i32 %53, 11
  %60 = icmp ne i32 %1, 0
  %or.cond = and i1 %60, %59
  br i1 %or.cond, label %.preheader, label %.critedge3.thread

.preheader:                                       ; preds = %58
  br i1 %.not, label %.preheader.split.us, label %.preheader.split

.preheader.split.us:                              ; preds = %.preheader, %68
  %61 = tail call ptr @PyEval_SaveThread() #11
  %62 = load ptr, ptr %48, align 8, !tbaa !9
  %63 = tail call i32 @sem_wait(ptr noundef %62) #11
  tail call void @PyEval_RestoreThread(ptr noundef %61) #11
  %64 = load i32, ptr %52, align 4, !tbaa !33
  %65 = icmp ne i32 %63, -1003
  %66 = icmp slt i32 %63, 0
  %or.cond5.us = and i1 %65, %66
  %67 = icmp eq i32 %64, 4
  %or.cond51.us = select i1 %or.cond5.us, i1 %67, i1 false
  br i1 %or.cond51.us, label %68, label %.critedge3

68:                                               ; preds = %.preheader.split.us
  %69 = tail call i32 @PyErr_CheckSignals() #11
  %.not47.us = icmp eq i32 %69, 0
  br i1 %.not47.us, label %.preheader.split.us, label %.critedge3.thread.thread, !llvm.loop !44

.preheader.split:                                 ; preds = %.preheader, %77
  %70 = call ptr @PyEval_SaveThread() #11
  %71 = load ptr, ptr %48, align 8, !tbaa !9
  %72 = call i32 @sem_timedwait(ptr noundef %71, ptr noundef nonnull %4) #11
  call void @PyEval_RestoreThread(ptr noundef %70) #11
  %73 = load i32, ptr %52, align 4, !tbaa !33
  %74 = icmp ne i32 %72, -1003
  %75 = icmp slt i32 %72, 0
  %or.cond5 = and i1 %74, %75
  %76 = icmp eq i32 %73, 4
  %or.cond51 = select i1 %or.cond5, i1 %76, i1 false
  br i1 %or.cond51, label %77, label %.critedge3

77:                                               ; preds = %.preheader.split
  %78 = call i32 @PyErr_CheckSignals() #11
  %.not47 = icmp eq i32 %78, 0
  br i1 %.not47, label %.preheader.split, label %.critedge3.thread.thread, !llvm.loop !44

.critedge3:                                       ; preds = %.preheader.split, %.preheader.split.us
  %.us-phi = phi i32 [ %63, %.preheader.split.us ], [ %72, %.preheader.split ]
  %.us-phi71 = phi i32 [ %64, %.preheader.split.us ], [ %73, %.preheader.split ]
  %79 = icmp slt i32 %.us-phi, 0
  br i1 %79, label %.critedge3.thread, label %.critedge3.thread57

.critedge3.thread.thread:                         ; preds = %77, %68, %.thread52
  store i32 4, ptr %52, align 4, !tbaa !33
  br label %80

.critedge3.thread:                                ; preds = %58, %.critedge3
  %.03656 = phi i32 [ %.us-phi71, %.critedge3 ], [ %53, %58 ]
  store i32 %.03656, ptr %52, align 4, !tbaa !33
  switch i32 %.03656, label %81 [
    i32 11, label %.critedge49
    i32 110, label %.critedge49
    i32 4, label %80
  ]

80:                                               ; preds = %.critedge3.thread.thread, %.critedge3.thread
  br label %.critedge49

81:                                               ; preds = %.critedge3.thread
  %82 = load ptr, ptr @PyExc_OSError, align 8, !tbaa !25
  %83 = call ptr @PyErr_SetFromErrno(ptr noundef %82) #11
  br label %.critedge49

.critedge3.thread57:                              ; preds = %.critedge, %.critedge3
  %84 = getelementptr inbounds nuw i8, ptr %0, i64 32
  %85 = load i32, ptr %84, align 8, !tbaa !30
  %86 = add i32 %85, 1
  store i32 %86, ptr %84, align 8, !tbaa !30
  %87 = call i64 @PyThread_get_thread_ident() #11
  %88 = getelementptr inbounds nuw i8, ptr %0, i64 24
  store i64 %87, ptr %88, align 8, !tbaa !31
  br label %.critedge49

.critedge49:                                      ; preds = %44, %80, %81, %.critedge3.thread57, %.critedge3.thread, %.critedge3.thread, %22, %18
  %.0 = phi ptr [ @_Py_TrueStruct, %18 ], [ null, %80 ], [ %83, %81 ], [ @_Py_TrueStruct, %.critedge3.thread57 ], [ null, %44 ], [ @_Py_FalseStruct, %.critedge3.thread ], [ @_Py_FalseStruct, %.critedge3.thread ], [ null, %22 ]
  call void @llvm.lifetime.end.p0(i64 16, ptr nonnull %4) #11
  ret ptr %.0
}